; Function Attrs: nounwind uwtable
define internal void @dissect_ul_cqi_information_value(ptr noundef %0, ptr noundef %1) #0 {
  %3 = alloca i32, align 4
  %4 = load i32, ptr @hf_nfapi_ul_cqi, align 4
  %5 = tail call ptr @ptvcursor_add(ptr noundef %0, i32 noundef %4, i32 noundef 1, i32 noundef 0) #7
  %6 = load i32, ptr @hf_nfapi_channel, align 4
  %7 = call ptr @ptvcursor_add_ret_uint(ptr noundef %0, i32 noundef %6, i32 noundef 1, i32 noundef 0, ptr noundef nonnull %3) #7
  %8 = load i32, ptr %3, align 4
  %9 = icmp ugt i32 %8, 1
  br i1 %9, label %10, label %12

10:                                               ; preds = %2
  %11 = call ptr (ptr, ptr, ptr, ptr, ...) @expert_add_info_format(ptr noundef %1, ptr noundef %7, ptr noundef nonnull @ei_invalid_range, ptr noundef nonnull @.str.2279) #7
  br label %12

12:                                               ; preds = %10, %2
  ret void
}